target datalayout = "e-m:e-p270:32:32-p271:32:32-p272:64:64-i64:64-i128:128-f80:128-n8:16:32:64-S128"
target triple = "x86_64-pc-linux-gnu"

%struct.Scheduler = type { ptr, ptr, i32, ptr, i32, i32, %union.pthread_mutex_t, i32, i32, %union.pthread_mutex_t, %union.pthread_cond_t, ptr, i32, ptr, i32, ptr, i32, ptr, i32, ptr, i32, i32, i32, %union.pthread_mutex_t, i64 }
%union.pthread_cond_t = type { %struct.__pthread_cond_s }
%struct.__pthread_cond_s = type { %union.__atomic_wide_counter, %union.__atomic_wide_counter, [2 x i32], [2 x i32], i32, i32, [2 x i32] }
%union.__atomic_wide_counter = type { i64 }
%union.pthread_mutex_t = type { %struct.__pthread_mutex_s }
%struct.__pthread_mutex_s = type { i32, i32, i32, i32, i32, i16, i16, %struct.__pthread_internal_list }
%struct.__pthread_internal_list = type { ptr, ptr }
%struct.SchDemux = type { ptr, ptr, i32, %struct.SchTask, %struct.SchWaiter, ptr, i32 }
%struct.SchTask = type { ptr, %struct.SchedulerNode, ptr, ptr, i64, i32 }
%struct.SchedulerNode = type { i32, i32, i32 }
%struct.SchWaiter = type { %union.pthread_mutex_t, %union.pthread_cond_t, i32, i32, i32 }

@sch_demux_class = internal constant { ptr, ptr, ptr, i32, i32, i32, i32, ptr, ptr, ptr, ptr, i32, [4 x i8] } { ptr @.str.36, ptr null, ptr null, i32 3932772, i32 0, i32 56, i32 0, ptr null, ptr null, ptr null, ptr null, i32 0, [4 x i8] zeroinitializer }, align 8

; Function Attrs: nounwind uwtable
define internal i32 @waiter_init(ptr noundef %0) #0 {
  %2 = alloca i32, align 4
  %3 = alloca ptr, align 8
  %4 = alloca i32, align 4
  %5 = alloca i32, align 4
  store ptr %0, ptr %3, align 8, !tbaa !83
  call void @llvm.lifetime.start.p0(i64 4, ptr %4) #9
  %6 = load ptr, ptr %3, align 8, !tbaa !83
  %7 = getelementptr inbounds nuw %struct.SchWaiter, ptr %6, i32 0, i32 2
  store i32 0, ptr %7, align 4, !tbaa !111
  %8 = load ptr, ptr %3, align 8, !tbaa !83
  %9 = getelementptr inbounds nuw %struct.SchWaiter, ptr %8, i32 0, i32 0
  %10 = call i32 @pthread_mutex_init(ptr noundef %9, ptr noundef null) #9
  store i32 %10, ptr %4, align 4, !tbaa !12
  %11 = load i32, ptr %4, align 4, !tbaa !12
  %12 = icmp ne i32 %11, 0
  br i1 %12, label %13, label %16

13:                                               ; preds = %1
  %14 = load i32, ptr %4, align 4, !tbaa !12
  %15 = sub nsw i32 0, %14
  store i32 %15, ptr %2, align 4
  store i32 1, ptr %5, align 4
  br label %26

16:                                               ; preds = %1
  %17 = load ptr, ptr %3, align 8, !tbaa !83
  %18 = getelementptr inbounds nuw %struct.SchWaiter, ptr %17, i32 0, i32 1
  %19 = call i32 @pthread_cond_init(ptr noundef %18, ptr noundef null) #9
  store i32 %19, ptr %4, align 4, !tbaa !12
  %20 = load i32, ptr %4, align 4, !tbaa !12
  %21 = icmp ne i32 %20, 0
  br i1 %21, label %22, label %25

22:                                               ; preds = %16
  %23 = load i32, ptr %4, align 4, !tbaa !12
  %24 = sub nsw i32 0, %23
  store i32 %24, ptr %2, align 4
  store i32 1, ptr %5, align 4
  br label %26

25:                                               ; preds = %16
  store i32 0, ptr %2, align 4
  store i32 1, ptr %5, align 4
  br label %26

26:                                               ; preds = %25, %22, %13
  call void @llvm.lifetime.end.p0(i64 4, ptr %4) #9
  %27 = load i32, ptr %2, align 4
  ret i32 %27
}

; Function Attrs: nounwind uwtable
define internal void @task_init(ptr noundef %0, ptr noundef %1, i32 noundef %2, i32 noundef %3, ptr noundef %4, ptr noundef %5) #0 {
  %7 = alloca ptr, align 8
  %8 = alloca ptr, align 8
  %9 = alloca i32, align 4
  %10 = alloca i32, align 4
  %11 = alloca ptr, align 8
  %12 = alloca ptr, align 8
  store ptr %0, ptr %7, align 8, !tbaa !10
  store ptr %1, ptr %8, align 8, !tbaa !101
  store i32 %2, ptr %9, align 4, !tbaa !12
  store i32 %3, ptr %10, align 4, !tbaa !12
  store ptr %4, ptr %11, align 8, !tbaa !97
  store ptr %5, ptr %12, align 8, !tbaa !97
  %13 = load ptr, ptr %7, align 8, !tbaa !10
  %14 = load ptr, ptr %8, align 8, !tbaa !101
  %15 = getelementptr inbounds nuw %struct.SchTask, ptr %14, i32 0, i32 0
  store ptr %13, ptr %15, align 8, !tbaa !103
  %16 = load i32, ptr %9, align 4, !tbaa !12
  %17 = load ptr, ptr %8, align 8, !tbaa !101
  %18 = getelementptr inbounds nuw %struct.SchTask, ptr %17, i32 0, i32 1
  %19 = getelementptr inbounds nuw %struct.SchedulerNode, ptr %18, i32 0, i32 0
  store i32 %16, ptr %19, align 8, !tbaa !104
  %20 = load i32, ptr %10, align 4, !tbaa !12
  %21 = load ptr, ptr %8, align 8, !tbaa !101
  %22 = getelementptr inbounds nuw %struct.SchTask, ptr %21, i32 0, i32 1
  %23 = getelementptr inbounds nuw %struct.SchedulerNode, ptr %22, i32 0, i32 1
  store i32 %20, ptr %23, align 4, !tbaa !105
  %24 = load ptr, ptr %11, align 8, !tbaa !97
  %25 = load ptr, ptr %8, align 8, !tbaa !101
  %26 = getelementptr inbounds nuw %struct.SchTask, ptr %25, i32 0, i32 2
  store ptr %24, ptr %26, align 8, !tbaa !106
  %27 = load ptr, ptr %12, align 8, !tbaa !97
  %28 = load ptr, ptr %8, align 8, !tbaa !101
  %29 = getelementptr inbounds nuw %struct.SchTask, ptr %28, i32 0, i32 3
  store ptr %27, ptr %29, align 8, !tbaa !107
  ret void
}

; Function Attrs: nounwind uwtable
define i32 @sch_add_demux(ptr noundef %0, ptr noundef %1, ptr noundef %2) #0 {
  %4 = alloca i32, align 4
  %5 = alloca ptr, align 8
  %6 = alloca ptr, align 8
  %7 = alloca ptr, align 8
  %8 = alloca i32, align 4
  %9 = alloca ptr, align 8
  %10 = alloca i32, align 4
  %11 = alloca i32, align 4
  store ptr %0, ptr %5, align 8, !tbaa !10
  store ptr %1, ptr %6, align 8, !tbaa !97
  store ptr %2, ptr %7, align 8, !tbaa !97
  call void @llvm.lifetime.start.p0(i64 4, ptr %8) #9
  %12 = load ptr, ptr %5, align 8, !tbaa !10
  %13 = getelementptr inbounds nuw %struct.Scheduler, ptr %12, i32 0, i32 2
  %14 = load i32, ptr %13, align 8, !tbaa !14
  store i32 %14, ptr %8, align 4, !tbaa !12
  call void @llvm.lifetime.start.p0(i64 8, ptr %9) #9
  call void @llvm.lifetime.start.p0(i64 4, ptr %10) #9
  %15 = load ptr, ptr %5, align 8, !tbaa !10
  %16 = getelementptr inbounds nuw %struct.Scheduler, ptr %15, i32 0, i32 1
  %17 = load ptr, ptr %5, align 8, !tbaa !10
  %18 = getelementptr inbounds nuw %struct.Scheduler, ptr %17, i32 0, i32 2
  %19 = load ptr, ptr %5, align 8, !tbaa !10
  %20 = getelementptr inbounds nuw %struct.Scheduler, ptr %19, i32 0, i32 2
  %21 = load i32, ptr %20, align 8, !tbaa !14
  %22 = add i32 %21, 1
  %23 = call i32 @grow_array(ptr noundef %16, i32 noundef 200, ptr noundef %18, i32 noundef %22)
  store i32 %23, ptr %10, align 4, !tbaa !12
  %24 = load i32, ptr %10, align 4, !tbaa !12
  %25 = icmp slt i32 %24, 0
  br i1 %25, label %26, label %28

26:                                               ; preds = %3
  %27 = load i32, ptr %10, align 4, !tbaa !12
  store i32 %27, ptr %4, align 4
  store i32 1, ptr %11, align 4
  br label %61

28:                                               ; preds = %3
  %29 = load ptr, ptr %5, align 8, !tbaa !10
  %30 = getelementptr inbounds nuw %struct.Scheduler, ptr %29, i32 0, i32 1
  %31 = load ptr, ptr %30, align 8, !tbaa !24
  %32 = load i32, ptr %8, align 4, !tbaa !12
  %33 = zext i32 %32 to i64
  %34 = getelementptr inbounds nuw %struct.SchDemux, ptr %31, i64 %33
  store ptr %34, ptr %9, align 8, !tbaa !25
  %35 = load ptr, ptr %5, align 8, !tbaa !10
  %36 = load ptr, ptr %9, align 8, !tbaa !25
  %37 = getelementptr inbounds nuw %struct.SchDemux, ptr %36, i32 0, i32 3
  %38 = load i32, ptr %8, align 4, !tbaa !12
  %39 = load ptr, ptr %6, align 8, !tbaa !97
  %40 = load ptr, ptr %7, align 8, !tbaa !97
  call void @task_init(ptr noundef %35, ptr noundef %37, i32 noundef 1, i32 noundef %38, ptr noundef %39, ptr noundef %40)
  %41 = load ptr, ptr %9, align 8, !tbaa !25
  %42 = getelementptr inbounds nuw %struct.SchDemux, ptr %41, i32 0, i32 0
  store ptr @sch_demux_class, ptr %42, align 8, !tbaa !109
  %43 = call ptr @av_packet_alloc()
  %44 = load ptr, ptr %9, align 8, !tbaa !25
  %45 = getelementptr inbounds nuw %struct.SchDemux, ptr %44, i32 0, i32 5
  store ptr %43, ptr %45, align 8, !tbaa !110
  %46 = load ptr, ptr %9, align 8, !tbaa !25
  %47 = getelementptr inbounds nuw %struct.SchDemux, ptr %46, i32 0, i32 5
  %48 = load ptr, ptr %47, align 8, !tbaa !110
  %49 = icmp ne ptr %48, null
  br i1 %49, label %51, label %50

50:                                               ; preds = %28
  store i32 -12, ptr %4, align 4
  store i32 1, ptr %11, align 4
  br label %61

51:                                               ; preds = %28
  %52 = load ptr, ptr %9, align 8, !tbaa !25
  %53 = getelementptr inbounds nuw %struct.SchDemux, ptr %52, i32 0, i32 4
  %54 = call i32 @waiter_init(ptr noundef %53)
  store i32 %54, ptr %10, align 4, !tbaa !12
  %55 = load i32, ptr %10, align 4, !tbaa !12
  %56 = icmp slt i32 %55, 0
  br i1 %56, label %57, label %59

57:                                               ; preds = %51
  %58 = load i32, ptr %10, align 4, !tbaa !12
  store i32 %58, ptr %4, align 4
  store i32 1, ptr %11, align 4
  br label %61

59:                                               ; preds = %51
  %60 = load i32, ptr %8, align 4, !tbaa !12
  store i32 %60, ptr %4, align 4
  store i32 1, ptr %11, align 4
  br label %61

61:                                               ; preds = %59, %57, %50, %26
  call void @llvm.lifetime.end.p0(i64 4, ptr %10) #9
  call void @llvm.lifetime.end.p0(i64 8, ptr %9) #9
  call void @llvm.lifetime.end.p0(i64 4, ptr %8) #9
  %62 = load i32, ptr %4, align 4
  ret i32 %62
}