; Function Attrs: nounwind uwtable
define i32 @sch_add_demux(ptr noundef %0, ptr noundef %1, ptr noundef %2) local_unnamed_addr #0 {
  %4 = getelementptr inbounds nuw i8, ptr %0, i64 16
  %5 = load i32, ptr %4, align 8, !tbaa !9
  %6 = getelementptr inbounds nuw i8, ptr %0, i64 8
  %7 = add i32 %5, 1
  %8 = tail call i32 @grow_array(ptr noundef nonnull %6, i32 noundef 200, ptr noundef nonnull %4, i32 noundef %7) #9
  %9 = icmp slt i32 %8, 0
  br i1 %9, label %29, label %10

10:                                               ; preds = %3
  %11 = load ptr, ptr %6, align 8, !tbaa !21
  %12 = zext i32 %5 to i64
  %13 = getelementptr inbounds nuw %struct.SchDemux, ptr %11, i64 %12
  %14 = getelementptr inbounds nuw i8, ptr %13, i64 24
  store ptr %0, ptr %14, align 8, !tbaa !89
  %15 = getelementptr inbounds nuw i8, ptr %13, i64 32
  store i32 1, ptr %15, align 8, !tbaa !90
  %16 = getelementptr inbounds nuw i8, ptr %13, i64 36
  store i32 %5, ptr %16, align 4, !tbaa !91
  %17 = getelementptr inbounds nuw i8, ptr %13, i64 48
  store ptr %1, ptr %17, align 8, !tbaa !92
  %18 = getelementptr inbounds nuw i8, ptr %13, i64 56
  store ptr %2, ptr %18, align 8, !tbaa !93
  store ptr @sch_demux_class, ptr %13, align 8, !tbaa !94
  %19 = tail call ptr @av_packet_alloc() #9
  %20 = getelementptr inbounds nuw i8, ptr %13, i64 184
  store ptr %19, ptr %20, align 8, !tbaa !95
  %.not = icmp eq ptr %19, null
  br i1 %.not, label %29, label %21

21:                                               ; preds = %10
  %22 = getelementptr inbounds nuw i8, ptr %13, i64 80
  %23 = getelementptr inbounds nuw i8, ptr %13, i64 168
  store i32 0, ptr %23, align 4, !tbaa !96
  %24 = tail call i32 @pthread_mutex_init(ptr noundef nonnull %22, ptr noundef null) #9
  %.not.i = icmp eq i32 %24, 0
  br i1 %.not.i, label %25, label %waiter_init.exit

25:                                               ; preds = %21
  %26 = getelementptr inbounds nuw i8, ptr %13, i64 120
  %27 = tail call i32 @pthread_cond_init(ptr noundef nonnull %26, ptr noundef null) #9
  br label %waiter_init.exit

waiter_init.exit:                                 ; preds = %21, %25
  %.pn.i = phi i32 [ %27, %25 ], [ %24, %21 ]
  %.0.i = sub nsw i32 0, %.pn.i
  %28 = icmp sgt i32 %.pn.i, 0
  %. = select i1 %28, i32 %.0.i, i32 %5
  br label %29

29:                                               ; preds = %waiter_init.exit, %10, %3
  %.0 = phi i32 [ %8, %3 ], [ -12, %10 ], [ %., %waiter_init.exit ]
  ret i32 %.0
}